target datalayout = "e-m:e-p270:32:32-p271:32:32-p272:64:64-i64:64-i128:128-f80:128-n8:16:32:64-S128"
target triple = "x86_64-pc-linux-gnu"

%struct.gres_slurmd_conf = type { i32, i64, i32, ptr, ptr, ptr, ptr, ptr, ptr, ptr, i32 }
%struct.tot_from_slurmd_conf_t = type { i32, i32, i32, i64, i32, i32, i64 }

; Function Attrs: nounwind uwtable
define internal i32 @_foreach_get_tot_from_slurmd_conf(ptr noundef %0, ptr noundef %1) #0 {
  %3 = alloca i32, align 4
  %4 = alloca ptr, align 8
  %5 = alloca ptr, align 8
  %6 = alloca ptr, align 8
  %7 = alloca ptr, align 8
  %8 = alloca i32, align 4
  store ptr %0, ptr %4, align 8
  store ptr %1, ptr %5, align 8
  call void @llvm.lifetime.start.p0(i64 8, ptr %6) #11
  %9 = load ptr, ptr %4, align 8
  store ptr %9, ptr %6, align 8
  call void @llvm.lifetime.start.p0(i64 8, ptr %7) #11
  %10 = load ptr, ptr %5, align 8
  store ptr %10, ptr %7, align 8
  %11 = load ptr, ptr %6, align 8
  %12 = getelementptr inbounds nuw %struct.gres_slurmd_conf, ptr %11, i32 0, i32 10
  %13 = load i32, ptr %12, align 8
  %14 = load ptr, ptr %7, align 8
  %15 = getelementptr inbounds nuw %struct.tot_from_slurmd_conf_t, ptr %14, i32 0, i32 4
  %16 = load i32, ptr %15, align 8
  %17 = icmp ne i32 %13, %16
  br i1 %17, label %18, label %19

18:                                               ; preds = %2
  store i32 0, ptr %3, align 4
  store i32 1, ptr %8, align 4
  br label %53

19:                                               ; preds = %2
  %20 = load ptr, ptr %6, align 8
  %21 = getelementptr inbounds nuw %struct.gres_slurmd_conf, ptr %20, i32 0, i32 0
  %22 = load i32, ptr %21, align 8
  %23 = load ptr, ptr %7, align 8
  %24 = getelementptr inbounds nuw %struct.tot_from_slurmd_conf_t, ptr %23, i32 0, i32 0
  %25 = load i32, ptr %24, align 8
  %26 = or i32 %25, %22
  store i32 %26, ptr %24, align 8
  %27 = load ptr, ptr %6, align 8
  %28 = getelementptr inbounds nuw %struct.gres_slurmd_conf, ptr %27, i32 0, i32 1
  %29 = load i64, ptr %28, align 8
  %30 = load ptr, ptr %7, align 8
  %31 = getelementptr inbounds nuw %struct.tot_from_slurmd_conf_t, ptr %30, i32 0, i32 3
  %32 = load i64, ptr %31, align 8
  %33 = add i64 %32, %29
  store i64 %33, ptr %31, align 8
  %34 = load ptr, ptr %7, align 8
  %35 = getelementptr inbounds nuw %struct.tot_from_slurmd_conf_t, ptr %34, i32 0, i32 5
  %36 = load i32, ptr %35, align 4
  %37 = add i32 %36, 1
  store i32 %37, ptr %35, align 4
  %38 = load ptr, ptr %6, align 8
  %39 = getelementptr inbounds nuw %struct.gres_slurmd_conf, ptr %38, i32 0, i32 3
  %40 = load ptr, ptr %39, align 8
  %41 = icmp ne ptr %40, null
  br i1 %41, label %47, label %42

42:                                               ; preds = %19
  %43 = load ptr, ptr %6, align 8
  %44 = getelementptr inbounds nuw %struct.gres_slurmd_conf, ptr %43, i32 0, i32 8
  %45 = load ptr, ptr %44, align 8
  %46 = icmp ne ptr %45, null
  br i1 %46, label %47, label %52

47:                                               ; preds = %42, %19
  %48 = load ptr, ptr %7, align 8
  %49 = getelementptr inbounds nuw %struct.tot_from_slurmd_conf_t, ptr %48, i32 0, i32 2
  %50 = load i32, ptr %49, align 8
  %51 = add i32 %50, 1
  store i32 %51, ptr %49, align 8
  br label %52

52:                                               ; preds = %47, %42
  store i32 0, ptr %3, align 4
  store i32 1, ptr %8, align 4
  br label %53

53:                                               ; preds = %52, %18
  call void @llvm.lifetime.end.p0(i64 8, ptr %7) #11
  call void @llvm.lifetime.end.p0(i64 8, ptr %6) #11
  %54 = load i32, ptr %3, align 4
  ret i32 %54
}