; Function Attrs: mustprogress nofree norecurse nosync nounwind willreturn memory(argmem: readwrite) uwtable
define internal noundef i32 @_foreach_get_tot_from_slurmd_conf(ptr noundef readonly captures(none) %0, ptr noundef captures(none) %1) #15 {
  %3 = getelementptr inbounds nuw i8, ptr %0, i64 80
  %4 = load i32, ptr %3, align 8
  %5 = getelementptr inbounds nuw i8, ptr %1, i64 24
  %6 = load i32, ptr %5, align 8
  %.not = icmp eq i32 %4, %6
  br i1 %.not, label %7, label %28

7:                                                ; preds = %2
  %8 = load i32, ptr %0, align 8
  %9 = load i32, ptr %1, align 8
  %10 = or i32 %9, %8
  store i32 %10, ptr %1, align 8
  %11 = getelementptr inbounds nuw i8, ptr %0, i64 8
  %12 = load i64, ptr %11, align 8
  %13 = getelementptr inbounds nuw i8, ptr %1, i64 16
  %14 = load i64, ptr %13, align 8
  %15 = add i64 %14, %12
  store i64 %15, ptr %13, align 8
  %16 = getelementptr inbounds nuw i8, ptr %1, i64 28
  %17 = load i32, ptr %16, align 4
  %18 = add i32 %17, 1
  store i32 %18, ptr %16, align 4
  %19 = getelementptr inbounds nuw i8, ptr %0, i64 24
  %20 = load ptr, ptr %19, align 8
  %.not12 = icmp eq ptr %20, null
  br i1 %.not12, label %21, label %24

21:                                               ; preds = %7
  %22 = getelementptr inbounds nuw i8, ptr %0, i64 64
  %23 = load ptr, ptr %22, align 8
  %.not13 = icmp eq ptr %23, null
  br i1 %.not13, label %28, label %24

24:                                               ; preds = %21, %7
  %25 = getelementptr inbounds nuw i8, ptr %1, i64 8
  %26 = load i32, ptr %25, align 8
  %27 = add i32 %26, 1
  store i32 %27, ptr %25, align 8
  br label %28

28:                                               ; preds = %21, %24, %2
  ret i32 0
}